target datalayout = "e-m:e-p270:32:32-p271:32:32-p272:64:64-i64:64-i128:128-f80:128-n8:16:32:64-S128"
target triple = "x86_64-pc-linux-gnu"

%struct.anon = type { i64, double, double, double, double, double, double, double, double, double, double, double }

@.str.26 = private unnamed_addr constant [19 x i8] c"N_VGetArrayPointer\00", align 1
@stderr = external global ptr, align 8
@.str.76 = private unnamed_addr constant [55 x i8] c"\0ASUNDIALS_ERROR: %s() failed - returned NULL pointer\0A\0A\00", align 1
@.str.77 = private unnamed_addr constant [46 x i8] c"\0ASUNDIALS_ERROR: %s() failed with flag = %d\0A\0A\00", align 1
@.str.78 = private unnamed_addr constant [53 x i8] c"\0AMEMORY_ERROR: %s() failed - returned NULL pointer\0A\0A\00", align 1

; Function Attrs: nounwind uwtable
define internal i32 @check_retval(ptr noundef %0, ptr noundef %1, i32 noundef %2) #0 {
  %4 = alloca i32, align 4
  %5 = alloca ptr, align 8
  %6 = alloca ptr, align 8
  %7 = alloca i32, align 4
  %8 = alloca ptr, align 8
  %9 = alloca i32, align 4
  store ptr %0, ptr %5, align 8, !tbaa !17
  store ptr %1, ptr %6, align 8, !tbaa !32
  store i32 %2, ptr %7, align 4, !tbaa !4
  call void @llvm.lifetime.start.p0(i64 8, ptr %8) #8
  %10 = load i32, ptr %7, align 4, !tbaa !4
  %11 = icmp eq i32 %10, 0
  br i1 %11, label %12, label %19

12:                                               ; preds = %3
  %13 = load ptr, ptr %5, align 8, !tbaa !17
  %14 = icmp eq ptr %13, null
  br i1 %14, label %15, label %19

15:                                               ; preds = %12
  %16 = load ptr, ptr @stderr, align 8, !tbaa !55
  %17 = load ptr, ptr %6, align 8, !tbaa !32
  %18 = call i32 (ptr, ptr, ...) @fprintf(ptr noundef %16, ptr noundef @.str.76, ptr noundef %17) #8
  store i32 1, ptr %4, align 4
  store i32 1, ptr %9, align 4
  br label %47

19:                                               ; preds = %12, %3
  %20 = load i32, ptr %7, align 4, !tbaa !4
  %21 = icmp eq i32 %20, 1
  br i1 %21, label %22, label %34

22:                                               ; preds = %19
  %23 = load ptr, ptr %5, align 8, !tbaa !17
  store ptr %23, ptr %8, align 8, !tbaa !57
  %24 = load ptr, ptr %8, align 8, !tbaa !57
  %25 = load i32, ptr %24, align 4, !tbaa !4
  %26 = icmp slt i32 %25, 0
  br i1 %26, label %27, label %33

27:                                               ; preds = %22
  %28 = load ptr, ptr @stderr, align 8, !tbaa !55
  %29 = load ptr, ptr %6, align 8, !tbaa !32
  %30 = load ptr, ptr %8, align 8, !tbaa !57
  %31 = load i32, ptr %30, align 4, !tbaa !4
  %32 = call i32 (ptr, ptr, ...) @fprintf(ptr noundef %28, ptr noundef @.str.77, ptr noundef %29, i32 noundef %31) #8
  store i32 1, ptr %4, align 4
  store i32 1, ptr %9, align 4
  br label %47

33:                                               ; preds = %22
  br label %45

34:                                               ; preds = %19
  %35 = load i32, ptr %7, align 4, !tbaa !4
  %36 = icmp eq i32 %35, 2
  br i1 %36, label %37, label %44

37:                                               ; preds = %34
  %38 = load ptr, ptr %5, align 8, !tbaa !17
  %39 = icmp eq ptr %38, null
  br i1 %39, label %40, label %44

40:                                               ; preds = %37
  %41 = load ptr, ptr @stderr, align 8, !tbaa !55
  %42 = load ptr, ptr %6, align 8, !tbaa !32
  %43 = call i32 (ptr, ptr, ...) @fprintf(ptr noundef %41, ptr noundef @.str.78, ptr noundef %42) #8
  store i32 1, ptr %4, align 4
  store i32 1, ptr %9, align 4
  br label %47

44:                                               ; preds = %37, %34
  br label %45

45:                                               ; preds = %44, %33
  br label %46

46:                                               ; preds = %45
  store i32 0, ptr %4, align 4
  store i32 1, ptr %9, align 4
  br label %47

47:                                               ; preds = %46, %40, %27, %15
  call void @llvm.lifetime.end.p0(i64 8, ptr %8) #8
  %48 = load i32, ptr %4, align 4
  ret i32 %48
}

; Function Attrs: nounwind uwtable
define internal i32 @fs(double noundef %0, ptr noundef %1, ptr noundef %2, ptr noundef %3) #0 {
  %5 = alloca i32, align 4
  %6 = alloca double, align 8
  %7 = alloca ptr, align 8
  %8 = alloca ptr, align 8
  %9 = alloca ptr, align 8
  %10 = alloca ptr, align 8
  %11 = alloca i64, align 8
  %12 = alloca double, align 8
  %13 = alloca double, align 8
  %14 = alloca double, align 8
  %15 = alloca double, align 8
  %16 = alloca double, align 8
  %17 = alloca double, align 8
  %18 = alloca double, align 8
  %19 = alloca ptr, align 8
  %20 = alloca ptr, align 8
  %21 = alloca double, align 8
  %22 = alloca double, align 8
  %23 = alloca double, align 8
  %24 = alloca double, align 8
  %25 = alloca double, align 8
  %26 = alloca double, align 8
  %27 = alloca double, align 8
  %28 = alloca double, align 8
  %29 = alloca double, align 8
  %30 = alloca double, align 8
  %31 = alloca double, align 8
  %32 = alloca double, align 8
  %33 = alloca double, align 8
  %34 = alloca double, align 8
  %35 = alloca double, align 8
  %36 = alloca i64, align 8
  %37 = alloca i32, align 4
  store double %0, ptr %6, align 8, !tbaa !11
  store ptr %1, ptr %7, align 8, !tbaa !15
  store ptr %2, ptr %8, align 8, !tbaa !15
  store ptr %3, ptr %9, align 8, !tbaa !17
  call void @llvm.lifetime.start.p0(i64 8, ptr %10) #8
  %38 = load ptr, ptr %9, align 8, !tbaa !17
  store ptr %38, ptr %10, align 8, !tbaa !17
  call void @llvm.lifetime.start.p0(i64 8, ptr %11) #8
  %39 = load ptr, ptr %10, align 8, !tbaa !17
  %40 = getelementptr inbounds nuw %struct.anon, ptr %39, i32 0, i32 0
  %41 = load i64, ptr %40, align 8, !tbaa !34
  store i64 %41, ptr %11, align 8, !tbaa !13
  call void @llvm.lifetime.start.p0(i64 8, ptr %12) #8
  %42 = load ptr, ptr %10, align 8, !tbaa !17
  %43 = getelementptr inbounds nuw %struct.anon, ptr %42, i32 0, i32 5
  %44 = load double, ptr %43, align 8, !tbaa !38
  store double %44, ptr %12, align 8, !tbaa !11
  call void @llvm.lifetime.start.p0(i64 8, ptr %13) #8
  %45 = load ptr, ptr %10, align 8, !tbaa !17
  %46 = getelementptr inbounds nuw %struct.anon, ptr %45, i32 0, i32 6
  %47 = load double, ptr %46, align 8, !tbaa !39
  store double %47, ptr %13, align 8, !tbaa !11
  call void @llvm.lifetime.start.p0(i64 8, ptr %14) #8
  %48 = load ptr, ptr %10, align 8, !tbaa !17
  %49 = getelementptr inbounds nuw %struct.anon, ptr %48, i32 0, i32 7
  %50 = load double, ptr %49, align 8, !tbaa !40
  store double %50, ptr %14, align 8, !tbaa !11
  call void @llvm.lifetime.start.p0(i64 8, ptr %15) #8
  %51 = load ptr, ptr %10, align 8, !tbaa !17
  %52 = getelementptr inbounds nuw %struct.anon, ptr %51, i32 0, i32 8
  %53 = load double, ptr %52, align 8, !tbaa !41
  store double %53, ptr %15, align 8, !tbaa !11
  call void @llvm.lifetime.start.p0(i64 8, ptr %16) #8
  %54 = load ptr, ptr %10, align 8, !tbaa !17
  %55 = getelementptr inbounds nuw %struct.anon, ptr %54, i32 0, i32 9
  %56 = load double, ptr %55, align 8, !tbaa !42
  store double %56, ptr %16, align 8, !tbaa !11
  call void @llvm.lifetime.start.p0(i64 8, ptr %17) #8
  %57 = load ptr, ptr %10, align 8, !tbaa !17
  %58 = getelementptr inbounds nuw %struct.anon, ptr %57, i32 0, i32 10
  %59 = load double, ptr %58, align 8, !tbaa !43
  store double %59, ptr %17, align 8, !tbaa !11
  call void @llvm.lifetime.start.p0(i64 8, ptr %18) #8
  %60 = load ptr, ptr %10, align 8, !tbaa !17
  %61 = getelementptr inbounds nuw %struct.anon, ptr %60, i32 0, i32 1
  %62 = load double, ptr %61, align 8, !tbaa !46
  store double %62, ptr %18, align 8, !tbaa !11
  call void @llvm.lifetime.start.p0(i64 8, ptr %19) #8
  store ptr null, ptr %19, align 8, !tbaa !28
  call void @llvm.lifetime.start.p0(i64 8, ptr %20) #8
  store ptr null, ptr %20, align 8, !tbaa !28
  call void @llvm.lifetime.start.p0(i64 8, ptr %21) #8
  call void @llvm.lifetime.start.p0(i64 8, ptr %22) #8
  call void @llvm.lifetime.start.p0(i64 8, ptr %23) #8
  call void @llvm.lifetime.start.p0(i64 8, ptr %24) #8
  call void @llvm.lifetime.start.p0(i64 8, ptr %25) #8
  call void @llvm.lifetime.start.p0(i64 8, ptr %26) #8
  call void @llvm.lifetime.start.p0(i64 8, ptr %27) #8
  call void @llvm.lifetime.start.p0(i64 8, ptr %28) #8
  call void @llvm.lifetime.start.p0(i64 8, ptr %29) #8
  call void @llvm.lifetime.start.p0(i64 8, ptr %30) #8
  call void @llvm.lifetime.start.p0(i64 8, ptr %31) #8
  call void @llvm.lifetime.start.p0(i64 8, ptr %32) #8
  call void @llvm.lifetime.start.p0(i64 8, ptr %33) #8
  call void @llvm.lifetime.start.p0(i64 8, ptr %34) #8
  call void @llvm.lifetime.start.p0(i64 8, ptr %35) #8
  call void @llvm.lifetime.start.p0(i64 8, ptr %36) #8
  %63 = load ptr, ptr %7, align 8, !tbaa !15
  %64 = call ptr @N_VGetArrayPointer(ptr noundef %63)
  store ptr %64, ptr %19, align 8, !tbaa !28
  %65 = load ptr, ptr %19, align 8, !tbaa !28
  %66 = call i32 @check_retval(ptr noundef %65, ptr noundef @.str.26, i32 noundef 0)
  %67 = icmp ne i32 %66, 0
  br i1 %67, label %68, label %69

68:                                               ; preds = %4
  store i32 1, ptr %5, align 4
  store i32 1, ptr %37, align 4
  br label %253

69:                                               ; preds = %4
  %70 = load ptr, ptr %8, align 8, !tbaa !15
  %71 = call ptr @N_VGetArrayPointer(ptr noundef %70)
  store ptr %71, ptr %20, align 8, !tbaa !28
  %72 = load ptr, ptr %20, align 8, !tbaa !28
  %73 = call i32 @check_retval(ptr noundef %72, ptr noundef @.str.26, i32 noundef 0)
  %74 = icmp ne i32 %73, 0
  br i1 %74, label %75, label %76

75:                                               ; preds = %69
  store i32 1, ptr %5, align 4
  store i32 1, ptr %37, align 4
  br label %253

76:                                               ; preds = %69
  %77 = load ptr, ptr %8, align 8, !tbaa !15
  call void @N_VConst(double noundef 0.000000e+00, ptr noundef %77)
  %78 = load double, ptr %12, align 8, !tbaa !11
  %79 = load double, ptr %18, align 8, !tbaa !11
  %80 = fdiv double %78, %79
  %81 = load double, ptr %18, align 8, !tbaa !11
  %82 = fdiv double %80, %81
  store double %82, ptr %21, align 8, !tbaa !11
  %83 = load double, ptr %13, align 8, !tbaa !11
  %84 = load double, ptr %18, align 8, !tbaa !11
  %85 = fdiv double %83, %84
  %86 = load double, ptr %18, align 8, !tbaa !11
  %87 = fdiv double %85, %86
  store double %87, ptr %22, align 8, !tbaa !11
  %88 = load double, ptr %14, align 8, !tbaa !11
  %89 = load double, ptr %18, align 8, !tbaa !11
  %90 = fdiv double %88, %89
  %91 = load double, ptr %18, align 8, !tbaa !11
  %92 = fdiv double %90, %91
  store double %92, ptr %23, align 8, !tbaa !11
  %93 = load double, ptr %15, align 8, !tbaa !11
  %94 = fneg double %93
  %95 = fdiv double %94, 2.000000e+00
  %96 = load double, ptr %18, align 8, !tbaa !11
  %97 = fdiv double %95, %96
  store double %97, ptr %24, align 8, !tbaa !11
  %98 = load double, ptr %16, align 8, !tbaa !11
  %99 = fneg double %98
  %100 = fdiv double %99, 2.000000e+00
  %101 = load double, ptr %18, align 8, !tbaa !11
  %102 = fdiv double %100, %101
  store double %102, ptr %25, align 8, !tbaa !11
  %103 = load double, ptr %17, align 8, !tbaa !11
  %104 = fneg double %103
  %105 = fdiv double %104, 2.000000e+00
  %106 = load double, ptr %18, align 8, !tbaa !11
  %107 = fdiv double %105, %106
  store double %107, ptr %26, align 8, !tbaa !11
  store i64 1, ptr %36, align 8, !tbaa !13
  br label %108

108:                                              ; preds = %225, %76
  %109 = load i64, ptr %36, align 8, !tbaa !13
  %110 = load i64, ptr %11, align 8, !tbaa !13
  %111 = sub nsw i64 %110, 1
  %112 = icmp slt i64 %109, %111
  br i1 %112, label %113, label %228

113:                                              ; preds = %108
  %114 = load ptr, ptr %19, align 8, !tbaa !28
  %115 = load i64, ptr %36, align 8, !tbaa !13
  %116 = mul nsw i64 3, %115
  %117 = add nsw i64 %116, 0
  %118 = getelementptr inbounds double, ptr %114, i64 %117
  %119 = load double, ptr %118, align 8, !tbaa !11
  store double %119, ptr %27, align 8, !tbaa !11
  %120 = load ptr, ptr %19, align 8, !tbaa !28
  %121 = load i64, ptr %36, align 8, !tbaa !13
  %122 = sub nsw i64 %121, 1
  %123 = mul nsw i64 3, %122
  %124 = add nsw i64 %123, 0
  %125 = getelementptr inbounds double, ptr %120, i64 %124
  %126 = load double, ptr %125, align 8, !tbaa !11
  store double %126, ptr %28, align 8, !tbaa !11
  %127 = load ptr, ptr %19, align 8, !tbaa !28
  %128 = load i64, ptr %36, align 8, !tbaa !13
  %129 = add nsw i64 %128, 1
  %130 = mul nsw i64 3, %129
  %131 = add nsw i64 %130, 0
  %132 = getelementptr inbounds double, ptr %127, i64 %131
  %133 = load double, ptr %132, align 8, !tbaa !11
  store double %133, ptr %29, align 8, !tbaa !11
  %134 = load ptr, ptr %19, align 8, !tbaa !28
  %135 = load i64, ptr %36, align 8, !tbaa !13
  %136 = mul nsw i64 3, %135
  %137 = add nsw i64 %136, 1
  %138 = getelementptr inbounds double, ptr %134, i64 %137
  %139 = load double, ptr %138, align 8, !tbaa !11
  store double %139, ptr %30, align 8, !tbaa !11
  %140 = load ptr, ptr %19, align 8, !tbaa !28
  %141 = load i64, ptr %36, align 8, !tbaa !13
  %142 = sub nsw i64 %141, 1
  %143 = mul nsw i64 3, %142
  %144 = add nsw i64 %143, 1
  %145 = getelementptr inbounds double, ptr %140, i64 %144
  %146 = load double, ptr %145, align 8, !tbaa !11
  store double %146, ptr %31, align 8, !tbaa !11
  %147 = load ptr, ptr %19, align 8, !tbaa !28
  %148 = load i64, ptr %36, align 8, !tbaa !13
  %149 = add nsw i64 %148, 1
  %150 = mul nsw i64 3, %149
  %151 = add nsw i64 %150, 1
  %152 = getelementptr inbounds double, ptr %147, i64 %151
  %153 = load double, ptr %152, align 8, !tbaa !11
  store double %153, ptr %32, align 8, !tbaa !11
  %154 = load ptr, ptr %19, align 8, !tbaa !28
  %155 = load i64, ptr %36, align 8, !tbaa !13
  %156 = mul nsw i64 3, %155
  %157 = add nsw i64 %156, 2
  %158 = getelementptr inbounds double, ptr %154, i64 %157
  %159 = load double, ptr %158, align 8, !tbaa !11
  store double %159, ptr %33, align 8, !tbaa !11
  %160 = load ptr, ptr %19, align 8, !tbaa !28
  %161 = load i64, ptr %36, align 8, !tbaa !13
  %162 = sub nsw i64 %161, 1
  %163 = mul nsw i64 3, %162
  %164 = add nsw i64 %163, 2
  %165 = getelementptr inbounds double, ptr %160, i64 %164
  %166 = load double, ptr %165, align 8, !tbaa !11
  store double %166, ptr %34, align 8, !tbaa !11
  %167 = load ptr, ptr %19, align 8, !tbaa !28
  %168 = load i64, ptr %36, align 8, !tbaa !13
  %169 = add nsw i64 %168, 1
  %170 = mul nsw i64 3, %169
  %171 = add nsw i64 %170, 2
  %172 = getelementptr inbounds double, ptr %167, i64 %171
  %173 = load double, ptr %172, align 8, !tbaa !11
  store double %173, ptr %35, align 8, !tbaa !11
  %174 = load double, ptr %28, align 8, !tbaa !11
  %175 = load double, ptr %27, align 8, !tbaa !11
  %176 = call double @llvm.fmuladd.f64(double -2.000000e+00, double %175, double %174)
  %177 = load double, ptr %29, align 8, !tbaa !11
  %178 = fadd double %176, %177
  %179 = load double, ptr %21, align 8, !tbaa !11
  %180 = load double, ptr %29, align 8, !tbaa !11
  %181 = load double, ptr %28, align 8, !tbaa !11
  %182 = fsub double %180, %181
  %183 = load double, ptr %24, align 8, !tbaa !11
  %184 = fmul double %182, %183
  %185 = call double @llvm.fmuladd.f64(double %178, double %179, double %184)
  %186 = load ptr, ptr %20, align 8, !tbaa !28
  %187 = load i64, ptr %36, align 8, !tbaa !13
  %188 = mul nsw i64 3, %187
  %189 = add nsw i64 %188, 0
  %190 = getelementptr inbounds double, ptr %186, i64 %189
  store double %185, ptr %190, align 8, !tbaa !11
  %191 = load double, ptr %31, align 8, !tbaa !11
  %192 = load double, ptr %30, align 8, !tbaa !11
  %193 = call double @llvm.fmuladd.f64(double -2.000000e+00, double %192, double %191)
  %194 = load double, ptr %32, align 8, !tbaa !11
  %195 = fadd double %193, %194
  %196 = load double, ptr %22, align 8, !tbaa !11
  %197 = load double, ptr %32, align 8, !tbaa !11
  %198 = load double, ptr %31, align 8, !tbaa !11
  %199 = fsub double %197, %198
  %200 = load double, ptr %25, align 8, !tbaa !11
  %201 = fmul double %199, %200
  %202 = call double @llvm.fmuladd.f64(double %195, double %196, double %201)
  %203 = load ptr, ptr %20, align 8, !tbaa !28
  %204 = load i64, ptr %36, align 8, !tbaa !13
  %205 = mul nsw i64 3, %204
  %206 = add nsw i64 %205, 1
  %207 = getelementptr inbounds double, ptr %203, i64 %206
  store double %202, ptr %207, align 8, !tbaa !11
  %208 = load double, ptr %34, align 8, !tbaa !11
  %209 = load double, ptr %33, align 8, !tbaa !11
  %210 = call double @llvm.fmuladd.f64(double -2.000000e+00, double %209, double %208)
  %211 = load double, ptr %35, align 8, !tbaa !11
  %212 = fadd double %210, %211
  %213 = load double, ptr %23, align 8, !tbaa !11
  %214 = load double, ptr %35, align 8, !tbaa !11
  %215 = load double, ptr %34, align 8, !tbaa !11
  %216 = fsub double %214, %215
  %217 = load double, ptr %26, align 8, !tbaa !11
  %218 = fmul double %216, %217
  %219 = call double @llvm.fmuladd.f64(double %212, double %213, double %218)
  %220 = load ptr, ptr %20, align 8, !tbaa !28
  %221 = load i64, ptr %36, align 8, !tbaa !13
  %222 = mul nsw i64 3, %221
  %223 = add nsw i64 %222, 2
  %224 = getelementptr inbounds double, ptr %220, i64 %223
  store double %219, ptr %224, align 8, !tbaa !11
  br label %225

225:                                              ; preds = %113
  %226 = load i64, ptr %36, align 8, !tbaa !13
  %227 = add nsw i64 %226, 1
  store i64 %227, ptr %36, align 8, !tbaa !13
  br label %108

228:                                              ; preds = %108
  %229 = load ptr, ptr %20, align 8, !tbaa !28
  %230 = getelementptr inbounds double, ptr %229, i64 2
  store double 0.000000e+00, ptr %230, align 8, !tbaa !11
  %231 = load ptr, ptr %20, align 8, !tbaa !28
  %232 = getelementptr inbounds double, ptr %231, i64 1
  store double 0.000000e+00, ptr %232, align 8, !tbaa !11
  %233 = load ptr, ptr %20, align 8, !tbaa !28
  %234 = getelementptr inbounds double, ptr %233, i64 0
  store double 0.000000e+00, ptr %234, align 8, !tbaa !11
  %235 = load ptr, ptr %20, align 8, !tbaa !28
  %236 = load i64, ptr %11, align 8, !tbaa !13
  %237 = sub nsw i64 %236, 1
  %238 = mul nsw i64 3, %237
  %239 = add nsw i64 %238, 2
  %240 = getelementptr inbounds double, ptr %235, i64 %239
  store double 0.000000e+00, ptr %240, align 8, !tbaa !11
  %241 = load ptr, ptr %20, align 8, !tbaa !28
  %242 = load i64, ptr %11, align 8, !tbaa !13
  %243 = sub nsw i64 %242, 1
  %244 = mul nsw i64 3, %243
  %245 = add nsw i64 %244, 1
  %246 = getelementptr inbounds double, ptr %241, i64 %245
  store double 0.000000e+00, ptr %246, align 8, !tbaa !11
  %247 = load ptr, ptr %20, align 8, !tbaa !28
  %248 = load i64, ptr %11, align 8, !tbaa !13
  %249 = sub nsw i64 %248, 1
  %250 = mul nsw i64 3, %249
  %251 = add nsw i64 %250, 0
  %252 = getelementptr inbounds double, ptr %247, i64 %251
  store double 0.000000e+00, ptr %252, align 8, !tbaa !11
  store i32 0, ptr %5, align 4
  store i32 1, ptr %37, align 4
  br label %253

253:                                              ; preds = %228, %75, %68
  call void @llvm.lifetime.end.p0(i64 8, ptr %36) #8
  call void @llvm.lifetime.end.p0(i64 8, ptr %35) #8
  call void @llvm.lifetime.end.p0(i64 8, ptr %34) #8
  call void @llvm.lifetime.end.p0(i64 8, ptr %33) #8
  call void @llvm.lifetime.end.p0(i64 8, ptr %32) #8
  call void @llvm.lifetime.end.p0(i64 8, ptr %31) #8
  call void @llvm.lifetime.end.p0(i64 8, ptr %30) #8
  call void @llvm.lifetime.end.p0(i64 8, ptr %29) #8
  call void @llvm.lifetime.end.p0(i64 8, ptr %28) #8
  call void @llvm.lifetime.end.p0(i64 8, ptr %27) #8
  call void @llvm.lifetime.end.p0(i64 8, ptr %26) #8
  call void @llvm.lifetime.end.p0(i64 8, ptr %25) #8
  call void @llvm.lifetime.end.p0(i64 8, ptr %24) #8
  call void @llvm.lifetime.end.p0(i64 8, ptr %23) #8
  call void @llvm.lifetime.end.p0(i64 8, ptr %22) #8
  call void @llvm.lifetime.end.p0(i64 8, ptr %21) #8
  call void @llvm.lifetime.end.p0(i64 8, ptr %20) #8
  call void @llvm.lifetime.end.p0(i64 8, ptr %19) #8
  call void @llvm.lifetime.end.p0(i64 8, ptr %18) #8
  call void @llvm.lifetime.end.p0(i64 8, ptr %17) #8
  call void @llvm.lifetime.end.p0(i64 8, ptr %16) #8
  call void @llvm.lifetime.end.p0(i64 8, ptr %15) #8
  call void @llvm.lifetime.end.p0(i64 8, ptr %14) #8
  call void @llvm.lifetime.end.p0(i64 8, ptr %13) #8
  call void @llvm.lifetime.end.p0(i64 8, ptr %12) #8
  call void @llvm.lifetime.end.p0(i64 8, ptr %11) #8
  call void @llvm.lifetime.end.p0(i64 8, ptr %10) #8
  %254 = load i32, ptr %5, align 4
  ret i32 %254
}