; Function Attrs: nounwind uwtable
define internal range(i32 0, 2) i32 @fs(double %0, ptr noundef %1, ptr noundef %2, ptr noundef readonly captures(none) %3) #0 {
  %5 = load i64, ptr %3, align 8, !tbaa !16
  %6 = getelementptr inbounds nuw i8, ptr %3, i64 40
  %7 = load double, ptr %6, align 8, !tbaa !22
  %8 = getelementptr inbounds nuw i8, ptr %3, i64 48
  %9 = load double, ptr %8, align 8, !tbaa !23
  %10 = getelementptr inbounds nuw i8, ptr %3, i64 56
  %11 = load double, ptr %10, align 8, !tbaa !24
  %12 = getelementptr inbounds nuw i8, ptr %3, i64 64
  %13 = load double, ptr %12, align 8, !tbaa !25
  %14 = getelementptr inbounds nuw i8, ptr %3, i64 72
  %15 = load double, ptr %14, align 8, !tbaa !26
  %16 = getelementptr inbounds nuw i8, ptr %3, i64 80
  %17 = load double, ptr %16, align 8, !tbaa !27
  %18 = getelementptr inbounds nuw i8, ptr %3, i64 8
  %19 = load double, ptr %18, align 8, !tbaa !30
  %20 = tail call ptr @N_VGetArrayPointer(ptr noundef %1) #16
  %21 = icmp eq ptr %20, null
  br i1 %21, label %check_retval.exit, label %24

check_retval.exit:                                ; preds = %4
  %22 = load ptr, ptr @stderr, align 8, !tbaa !12
  %23 = tail call i32 (ptr, ptr, ...) @fprintf(ptr noundef %22, ptr noundef nonnull @.str.76, ptr noundef nonnull @.str.26) #17
  br label %85

24:                                               ; preds = %4
  %25 = tail call ptr @N_VGetArrayPointer(ptr noundef %2) #16
  %26 = icmp eq ptr %25, null
  br i1 %26, label %check_retval.exit90, label %29

check_retval.exit90:                              ; preds = %24
  %27 = load ptr, ptr @stderr, align 8, !tbaa !12
  %28 = tail call i32 (ptr, ptr, ...) @fprintf(ptr noundef %27, ptr noundef nonnull @.str.76, ptr noundef nonnull @.str.26) #17
  br label %85

29:                                               ; preds = %24
  tail call void @N_VConst(double noundef 0.000000e+00, ptr noundef %2) #16
  %30 = fdiv double %7, %19
  %31 = fdiv double %30, %19
  %32 = fdiv double %9, %19
  %33 = fdiv double %32, %19
  %34 = fdiv double %11, %19
  %35 = fdiv double %34, %19
  %36 = fmul double %13, -5.000000e-01
  %37 = fdiv double %36, %19
  %38 = fmul double %15, -5.000000e-01
  %39 = fdiv double %38, %19
  %40 = fmul double %17, -5.000000e-01
  %41 = fdiv double %40, %19
  %42 = add i64 %5, -1
  %43 = icmp sgt i64 %5, 2
  br i1 %43, label %.lr.ph, label %._crit_edge

.lr.ph:                                           ; preds = %29, %.lr.ph
  %.096 = phi i64 [ %49, %.lr.ph ], [ 1, %29 ]
  %44 = mul nuw nsw i64 %.096, 3
  %45 = getelementptr inbounds nuw double, ptr %20, i64 %44
  %46 = load double, ptr %45, align 8, !tbaa !31
  %47 = getelementptr i8, ptr %45, i64 -24
  %48 = load double, ptr %47, align 8, !tbaa !31
  %49 = add nuw nsw i64 %.096, 1
  %.idx95 = mul nuw nsw i64 %49, 24
  %50 = getelementptr inbounds nuw i8, ptr %20, i64 %.idx95
  %51 = load double, ptr %50, align 8, !tbaa !31
  %52 = add nuw nsw i64 %44, 1
  %53 = getelementptr inbounds nuw double, ptr %20, i64 %52
  %54 = load double, ptr %53, align 8, !tbaa !31
  %55 = getelementptr i8, ptr %45, i64 -16
  %56 = load double, ptr %55, align 8, !tbaa !31
  %57 = getelementptr inbounds nuw i8, ptr %50, i64 8
  %58 = load double, ptr %57, align 8, !tbaa !31
  %59 = add nuw nsw i64 %44, 2
  %60 = getelementptr inbounds nuw double, ptr %20, i64 %59
  %61 = load double, ptr %60, align 8, !tbaa !31
  %62 = getelementptr i8, ptr %45, i64 -8
  %63 = load double, ptr %62, align 8, !tbaa !31
  %64 = getelementptr inbounds nuw i8, ptr %50, i64 16
  %65 = load double, ptr %64, align 8, !tbaa !31
  %66 = tail call double @llvm.fmuladd.f64(double %46, double -2.000000e+00, double %48)
  %67 = fadd double %66, %51
  %68 = fsub double %51, %48
  %69 = fmul double %37, %68
  %70 = tail call double @llvm.fmuladd.f64(double %67, double %31, double %69)
  %71 = getelementptr inbounds nuw double, ptr %25, i64 %44
  store double %70, ptr %71, align 8, !tbaa !31
  %72 = tail call double @llvm.fmuladd.f64(double %54, double -2.000000e+00, double %56)
  %73 = fadd double %72, %58
  %74 = fsub double %58, %56
  %75 = fmul double %39, %74
  %76 = tail call double @llvm.fmuladd.f64(double %73, double %33, double %75)
  %77 = getelementptr inbounds nuw double, ptr %25, i64 %52
  store double %76, ptr %77, align 8, !tbaa !31
  %78 = tail call double @llvm.fmuladd.f64(double %61, double -2.000000e+00, double %63)
  %79 = fadd double %78, %65
  %80 = fsub double %65, %63
  %81 = fmul double %41, %80
  %82 = tail call double @llvm.fmuladd.f64(double %79, double %35, double %81)
  %83 = getelementptr inbounds nuw double, ptr %25, i64 %59
  store double %82, ptr %83, align 8, !tbaa !31
  %exitcond.not = icmp eq i64 %49, %42
  br i1 %exitcond.not, label %._crit_edge, label %.lr.ph

._crit_edge:                                      ; preds = %.lr.ph, %29
  %.idx = mul i64 %42, 24
  %84 = getelementptr i8, ptr %25, i64 %.idx
  tail call void @llvm.memset.p0.i64(ptr noundef nonnull align 8 dereferenceable(24) %25, i8 0, i64 24, i1 false)
  tail call void @llvm.memset.p0.i64(ptr noundef nonnull align 8 dereferenceable(24) %84, i8 0, i64 24, i1 false)
  br label %85

85:                                               ; preds = %check_retval.exit90, %check_retval.exit, %._crit_edge
  %.086 = phi i32 [ 0, %._crit_edge ], [ 1, %check_retval.exit ], [ 1, %check_retval.exit90 ]
  ret i32 %.086
}